
_Interrupt:

;main.c,22 :: 		void Interrupt(){
;main.c,23 :: 		INTCON.GIE = 0;
	BCF         INTCON+0, 7 
;main.c,25 :: 		if(PIR1.RCIF){ //Interrupcion por UART
	BTFSS       PIR1+0, 5 
	GOTO        L_Interrupt0
;main.c,26 :: 		do{
L_Interrupt1:
;main.c,27 :: 		bufferRx[indexBufferRx] = UART1_Read();
	MOVLW       _bufferRx+0
	MOVWF       FLOC__Interrupt+0 
	MOVLW       hi_addr(_bufferRx+0)
	MOVWF       FLOC__Interrupt+1 
	MOVF        _indexBufferRx+0, 0 
	ADDWF       FLOC__Interrupt+0, 1 
	BTFSC       STATUS+0, 0 
	INCF        FLOC__Interrupt+1, 1 
	CALL        _UART1_Read+0, 0
	MOVFF       FLOC__Interrupt+0, FSR1L+0
	MOVFF       FLOC__Interrupt+1, FSR1H+0
	MOVF        R0, 0 
	MOVWF       POSTINC1+0 
;main.c,28 :: 		indexBufferRx++;
	INCF        _indexBufferRx+0, 1 
;main.c,29 :: 		}while( UART1_Data_Ready() );
	CALL        _UART1_Data_Ready+0, 0
	MOVF        R0, 1 
	BTFSS       STATUS+0, 2 
	GOTO        L_Interrupt1
;main.c,32 :: 		PIR1.RCIF = 0;
	BCF         PIR1+0, 5 
;main.c,33 :: 		}
L_Interrupt0:
;main.c,34 :: 		if(INTCON.TMR0IF){ //Interrupcion por TIMER 0
	BTFSS       INTCON+0, 2 
	GOTO        L_Interrupt4
;main.c,35 :: 		INTCON.TMR0IF = 0;
	BCF         INTCON+0, 2 
;main.c,36 :: 		contCurrentFlag++;
	INFSNZ      _contCurrentFlag+0, 1 
	INCF        _contCurrentFlag+1, 1 
;main.c,37 :: 		if(contCurrentFlag == 625){  // (16mS)(625) = 10segs, enviar datos PZEM004t
	MOVF        _contCurrentFlag+1, 0 
	XORLW       2
	BTFSS       STATUS+0, 2 
	GOTO        L__Interrupt60
	MOVLW       113
	XORWF       _contCurrentFlag+0, 0 
L__Interrupt60:
	BTFSS       STATUS+0, 2 
	GOTO        L_Interrupt5
;main.c,38 :: 		currentFlag = 1;
	MOVLW       1
	MOVWF       _currentFlag+0 
;main.c,39 :: 		contCurrentFlag = 0;
	CLRF        _contCurrentFlag+0 
	CLRF        _contCurrentFlag+1 
;main.c,40 :: 		}
L_Interrupt5:
;main.c,41 :: 		TMR0L = 6;
	MOVLW       6
	MOVWF       TMR0L+0 
;main.c,42 :: 		}
L_Interrupt4:
;main.c,44 :: 		if(PIR1.TMR1IF){ //Interrupcion por TIMER 1
	BTFSS       PIR1+0, 0 
	GOTO        L_Interrupt6
;main.c,45 :: 		PIR1.TMR1IF = 0;
	BCF         PIR1+0, 0 
;main.c,46 :: 		contTimer1++;
	INFSNZ      _contTimer1+0, 1 
	INCF        _contTimer1+1, 1 
;main.c,47 :: 		if(contTimer1 >= 4){  // 125mS*(1) = 0.5 segundos
	MOVLW       0
	SUBWF       _contTimer1+1, 0 
	BTFSS       STATUS+0, 2 
	GOTO        L__Interrupt61
	MOVLW       4
	SUBWF       _contTimer1+0, 0 
L__Interrupt61:
	BTFSS       STATUS+0, 0 
	GOTO        L_Interrupt7
;main.c,48 :: 		T1CON.TMR1ON = 0; //para el conteo del TIMER1
	BCF         T1CON+0, 0 
;main.c,49 :: 		contTimer1=0;
	CLRF        _contTimer1+0 
	CLRF        _contTimer1+1 
;main.c,50 :: 		Soft_UART_Break();// Si el Soft_UART_Read() del PZEM004t queda atascado por 1miliseg, que haga un break para seguir el flujo del programa
	CALL        _Soft_UART_Break+0, 0
;main.c,51 :: 		errorPZEMFlag = 1;
	MOVLW       1
	MOVWF       _errorPZEMFlag+0 
;main.c,52 :: 		}
L_Interrupt7:
;main.c,53 :: 		TMR1H = 0b00001011;//Timer1 de 16bits comienza en 3036
	MOVLW       11
	MOVWF       TMR1H+0 
;main.c,54 :: 		TMR1L = 0b11011100;
	MOVLW       220
	MOVWF       TMR1L+0 
;main.c,55 :: 		}
L_Interrupt6:
;main.c,57 :: 		INTCON.GIE = 1;
	BSF         INTCON+0, 7 
;main.c,58 :: 		}
L_end_Interrupt:
L__Interrupt59:
	RETFIE      1
; end of _Interrupt

_main:

;main.c,60 :: 		void main() {
;main.c,61 :: 		delay_ms(30000);
	MOVLW       153
	MOVWF       R11, 0
	MOVLW       49
	MOVWF       R12, 0
	MOVLW       162
	MOVWF       R13, 0
L_main8:
	DECFSZ      R13, 1, 1
	BRA         L_main8
	DECFSZ      R12, 1, 1
	BRA         L_main8
	DECFSZ      R11, 1, 1
	BRA         L_main8
	NOP
;main.c,62 :: 		UART1_Init(115200);
	MOVLW       1
	MOVWF       SPBRG+0 
	BSF         TXSTA+0, 2, 0
	CALL        _UART1_Init+0, 0
;main.c,63 :: 		Init_EC200();
	CALL        _Init_EC200+0, 0
;main.c,64 :: 		Init_RF();
	CALL        _Init_RF+0, 0
;main.c,65 :: 		delay_ms(500);
	MOVLW       3
	MOVWF       R11, 0
	MOVLW       138
	MOVWF       R12, 0
	MOVLW       85
	MOVWF       R13, 0
L_main9:
	DECFSZ      R13, 1, 1
	BRA         L_main9
	DECFSZ      R12, 1, 1
	BRA         L_main9
	DECFSZ      R11, 1, 1
	BRA         L_main9
	NOP
	NOP
;main.c,66 :: 		Init_MQT("40.71.125.21", "GrupoIoTClient");//"40.71.125.21"
	MOVLW       ?lstr1_main+0
	MOVWF       FARG_Init_MQT_ip+0 
	MOVLW       hi_addr(?lstr1_main+0)
	MOVWF       FARG_Init_MQT_ip+1 
	MOVLW       ?lstr2_main+0
	MOVWF       FARG_Init_MQT_clientID+0 
	MOVLW       hi_addr(?lstr2_main+0)
	MOVWF       FARG_Init_MQT_clientID+1 
	CALL        _Init_MQT+0, 0
;main.c,67 :: 		subMQTT("motobomba");
	MOVLW       ?lstr3_main+0
	MOVWF       FARG_subMQTT_topic+0 
	MOVLW       hi_addr(?lstr3_main+0)
	MOVWF       FARG_subMQTT_topic+1 
	CALL        _subMQTT+0, 0
;main.c,68 :: 		delay_ms(500);
	MOVLW       3
	MOVWF       R11, 0
	MOVLW       138
	MOVWF       R12, 0
	MOVLW       85
	MOVWF       R13, 0
L_main10:
	DECFSZ      R13, 1, 1
	BRA         L_main10
	DECFSZ      R12, 1, 1
	BRA         L_main10
	DECFSZ      R11, 1, 1
	BRA         L_main10
	NOP
	NOP
;main.c,71 :: 		INTCON = 0b11100000;//Global Interrupt, interrupciones por perisfericos habilitadas,Overflow por Timer0(INTCON.GIE=1, PEIE=1, TMR0IE=1)
	MOVLW       224
	MOVWF       INTCON+0 
;main.c,72 :: 		PIE1   = 0b00100001; // Flag PIE1.RCIE (bit5), para habilitar las interrupciones por Rx UART - TMR1 Overflow Interrupt Enable bit(bit0)
	MOVLW       33
	MOVWF       PIE1+0 
;main.c,73 :: 		PIR1   = 0b00000000; // el(PIR1.RCIF) nos indica si llega algo al Rx UART, el (PIR1.TMR1IF)desbordamiento de timer1
	CLRF        PIR1+0 
;main.c,75 :: 		T0CON = 0b01000111; // Fosc/4 -> 16Mhz/4 = 4Mhz,     prescaler 1:256
	MOVLW       71
	MOVWF       T0CON+0 
;main.c,76 :: 		T1CON = 0b00110000; //Fosc/4, preescaler 1:8
	MOVLW       48
	MOVWF       T1CON+0 
;main.c,77 :: 		TMR0L = 6;
	MOVLW       6
	MOVWF       TMR0L+0 
;main.c,78 :: 		TMR1H = 0b00001011;//Timer1 de 16bits comienza en 3036
	MOVLW       11
	MOVWF       TMR1H+0 
;main.c,79 :: 		TMR1L = 0b11011100;
	MOVLW       220
	MOVWF       TMR1L+0 
;main.c,83 :: 		TRISC.F3 = 0; //Salida LED
	BCF         TRISC+0, 3 
;main.c,84 :: 		PORTC.F3 = 1; //LED indicador ON
	BSF         PORTC+0, 3 
;main.c,85 :: 		TRISC.F2 = 0;
	BCF         TRISC+0, 2 
;main.c,86 :: 		PORTC.F2 = 1;//RELÉ para encendido/apagado de motobomba. El modulo relé se enciende con un 0
	BSF         PORTC+0, 2 
;main.c,88 :: 		TRISC.F4=1; //Boton motobomba ON/OFF
	BSF         TRISC+0, 4 
;main.c,91 :: 		cleanBufferRx();
	CALL        _cleanBufferRx+0, 0
;main.c,92 :: 		delay_ms(500);
	MOVLW       3
	MOVWF       R11, 0
	MOVLW       138
	MOVWF       R12, 0
	MOVLW       85
	MOVWF       R13, 0
L_main11:
	DECFSZ      R13, 1, 1
	BRA         L_main11
	DECFSZ      R12, 1, 1
	BRA         L_main11
	DECFSZ      R11, 1, 1
	BRA         L_main11
	NOP
	NOP
;main.c,94 :: 		T0CON.TMR0ON = 1; //Comienza a contar el timer0
	BSF         T0CON+0, 7 
;main.c,95 :: 		while(1){
L_main12:
;main.c,97 :: 		if(pending_data_RF()){
	CALL        _pending_data_RF+0, 0
	MOVF        R0, 1 
	BTFSC       STATUS+0, 2 
	GOTO        L_main14
;main.c,98 :: 		bufferRF[4]='\0'; //Cambiando formato de #123# a solo enviar el dato 123
	CLRF        _bufferRF+4 
;main.c,99 :: 		sendMQTT(&bufferRF[1],"water");
	MOVLW       _bufferRF+1
	MOVWF       FARG_sendMQTT_mensaje+0 
	MOVLW       hi_addr(_bufferRF+1)
	MOVWF       FARG_sendMQTT_mensaje+1 
	MOVLW       ?lstr4_main+0
	MOVWF       FARG_sendMQTT_topic+0 
	MOVLW       hi_addr(?lstr4_main+0)
	MOVWF       FARG_sendMQTT_topic+1 
	CALL        _sendMQTT+0, 0
;main.c,100 :: 		waterLevel = StrToInt(&bufferRF[1]);
	MOVLW       _bufferRF+1
	MOVWF       FARG_StrToInt_byte_in+0 
	MOVLW       hi_addr(_bufferRF+1)
	MOVWF       FARG_StrToInt_byte_in+1 
	CALL        _StrToInt+0, 0
	MOVF        R0, 0 
	MOVWF       _waterLevel+0 
	MOVF        R1, 0 
	MOVWF       _waterLevel+1 
;main.c,101 :: 		for (k=0; k<5;k++)
	CLRF        _k+0 
L_main15:
	MOVLW       5
	SUBWF       _k+0, 0 
	BTFSC       STATUS+0, 0 
	GOTO        L_main16
;main.c,102 :: 		bufferRF[k] = '\0';
	MOVLW       _bufferRF+0
	MOVWF       FSR1L+0 
	MOVLW       hi_addr(_bufferRF+0)
	MOVWF       FSR1L+1 
	MOVF        _k+0, 0 
	ADDWF       FSR1L+0, 1 
	BTFSC       STATUS+0, 0 
	INCF        FSR1L+1, 1 
	CLRF        POSTINC1+0 
;main.c,101 :: 		for (k=0; k<5;k++)
	INCF        _k+0, 1 
;main.c,102 :: 		bufferRF[k] = '\0';
	GOTO        L_main15
L_main16:
;main.c,103 :: 		delay_ms(100);
	MOVLW       130
	MOVWF       R12, 0
	MOVLW       221
	MOVWF       R13, 0
L_main18:
	DECFSZ      R13, 1, 1
	BRA         L_main18
	DECFSZ      R12, 1, 1
	BRA         L_main18
	NOP
	NOP
;main.c,104 :: 		}
L_main14:
;main.c,107 :: 		if(currentFlag){
	MOVF        _currentFlag+0, 1 
	BTFSC       STATUS+0, 2 
	GOTO        L_main19
;main.c,108 :: 		currentFlag = 0;
	CLRF        _currentFlag+0 
;main.c,109 :: 		PZEM_Read_All();
	CALL        _PZEM_Read_All+0, 0
;main.c,110 :: 		delay_ms(10);
	MOVLW       13
	MOVWF       R12, 0
	MOVLW       251
	MOVWF       R13, 0
L_main20:
	DECFSZ      R13, 1, 1
	BRA         L_main20
	DECFSZ      R12, 1, 1
	BRA         L_main20
	NOP
	NOP
;main.c,111 :: 		FloatToStr(voltajePZEM/10.0, msj);
	MOVLW       0
	MOVWF       R4 
	MOVLW       0
	MOVWF       R5 
	MOVLW       32
	MOVWF       R6 
	MOVLW       130
	MOVWF       R7 
	MOVF        _voltajePZEM+0, 0 
	MOVWF       R0 
	MOVF        _voltajePZEM+1, 0 
	MOVWF       R1 
	MOVF        _voltajePZEM+2, 0 
	MOVWF       R2 
	MOVF        _voltajePZEM+3, 0 
	MOVWF       R3 
	CALL        _Div_32x32_FP+0, 0
	MOVF        R0, 0 
	MOVWF       FARG_FloatToStr_fnum+0 
	MOVF        R1, 0 
	MOVWF       FARG_FloatToStr_fnum+1 
	MOVF        R2, 0 
	MOVWF       FARG_FloatToStr_fnum+2 
	MOVF        R3, 0 
	MOVWF       FARG_FloatToStr_fnum+3 
	MOVLW       _msj+0
	MOVWF       FARG_FloatToStr_str+0 
	MOVLW       hi_addr(_msj+0)
	MOVWF       FARG_FloatToStr_str+1 
	CALL        _FloatToStr+0, 0
;main.c,112 :: 		sendMQTT(msj,"voltaje");
	MOVLW       _msj+0
	MOVWF       FARG_sendMQTT_mensaje+0 
	MOVLW       hi_addr(_msj+0)
	MOVWF       FARG_sendMQTT_mensaje+1 
	MOVLW       ?lstr5_main+0
	MOVWF       FARG_sendMQTT_topic+0 
	MOVLW       hi_addr(?lstr5_main+0)
	MOVWF       FARG_sendMQTT_topic+1 
	CALL        _sendMQTT+0, 0
;main.c,113 :: 		FloatToStr(corrientePZEM, msj);
	MOVF        _corrientePZEM+0, 0 
	MOVWF       FARG_FloatToStr_fnum+0 
	MOVF        _corrientePZEM+1, 0 
	MOVWF       FARG_FloatToStr_fnum+1 
	MOVF        _corrientePZEM+2, 0 
	MOVWF       FARG_FloatToStr_fnum+2 
	MOVF        _corrientePZEM+3, 0 
	MOVWF       FARG_FloatToStr_fnum+3 
	MOVLW       _msj+0
	MOVWF       FARG_FloatToStr_str+0 
	MOVLW       hi_addr(_msj+0)
	MOVWF       FARG_FloatToStr_str+1 
	CALL        _FloatToStr+0, 0
;main.c,114 :: 		sendMQTT(msj,"corriente");
	MOVLW       _msj+0
	MOVWF       FARG_sendMQTT_mensaje+0 
	MOVLW       hi_addr(_msj+0)
	MOVWF       FARG_sendMQTT_mensaje+1 
	MOVLW       ?lstr6_main+0
	MOVWF       FARG_sendMQTT_topic+0 
	MOVLW       hi_addr(?lstr6_main+0)
	MOVWF       FARG_sendMQTT_topic+1 
	CALL        _sendMQTT+0, 0
;main.c,115 :: 		FloatToStr(potenciaPZEM/10.0, msj);
	MOVLW       0
	MOVWF       R4 
	MOVLW       0
	MOVWF       R5 
	MOVLW       32
	MOVWF       R6 
	MOVLW       130
	MOVWF       R7 
	MOVF        _potenciaPZEM+0, 0 
	MOVWF       R0 
	MOVF        _potenciaPZEM+1, 0 
	MOVWF       R1 
	MOVF        _potenciaPZEM+2, 0 
	MOVWF       R2 
	MOVF        _potenciaPZEM+3, 0 
	MOVWF       R3 
	CALL        _Div_32x32_FP+0, 0
	MOVF        R0, 0 
	MOVWF       FARG_FloatToStr_fnum+0 
	MOVF        R1, 0 
	MOVWF       FARG_FloatToStr_fnum+1 
	MOVF        R2, 0 
	MOVWF       FARG_FloatToStr_fnum+2 
	MOVF        R3, 0 
	MOVWF       FARG_FloatToStr_fnum+3 
	MOVLW       _msj+0
	MOVWF       FARG_FloatToStr_str+0 
	MOVLW       hi_addr(_msj+0)
	MOVWF       FARG_FloatToStr_str+1 
	CALL        _FloatToStr+0, 0
;main.c,116 :: 		sendMQTT(msj,"potencia");
	MOVLW       _msj+0
	MOVWF       FARG_sendMQTT_mensaje+0 
	MOVLW       hi_addr(_msj+0)
	MOVWF       FARG_sendMQTT_mensaje+1 
	MOVLW       ?lstr7_main+0
	MOVWF       FARG_sendMQTT_topic+0 
	MOVLW       hi_addr(?lstr7_main+0)
	MOVWF       FARG_sendMQTT_topic+1 
	CALL        _sendMQTT+0, 0
;main.c,117 :: 		T0CON.TMR0ON = 1;//Reincia el conteo
	BSF         T0CON+0, 7 
;main.c,118 :: 		}
L_main19:
;main.c,120 :: 		if(strstr(bufferRx,"change") || Button_RELE){
	MOVLW       _bufferRx+0
	MOVWF       FARG_strstr_s1+0 
	MOVLW       hi_addr(_bufferRx+0)
	MOVWF       FARG_strstr_s1+1 
	MOVLW       ?lstr8_main+0
	MOVWF       FARG_strstr_s2+0 
	MOVLW       hi_addr(?lstr8_main+0)
	MOVWF       FARG_strstr_s2+1 
	CALL        _strstr+0, 0
	MOVF        R0, 0 
	IORWF       R1, 0 
	BTFSS       STATUS+0, 2 
	GOTO        L__main57
	BTFSC       PORTC+0, 4 
	GOTO        L__main57
	GOTO        L_main23
L__main57:
;main.c,121 :: 		RELE = ~RELE;
	BTG         PORTC+0, 2 
;main.c,122 :: 		if(RELE==0){
	BTFSC       PORTC+0, 2 
	GOTO        L_main24
;main.c,123 :: 		sendMQTT("1", "motobomba"); //Motobomba encendida
	MOVLW       ?lstr9_main+0
	MOVWF       FARG_sendMQTT_mensaje+0 
	MOVLW       hi_addr(?lstr9_main+0)
	MOVWF       FARG_sendMQTT_mensaje+1 
	MOVLW       ?lstr10_main+0
	MOVWF       FARG_sendMQTT_topic+0 
	MOVLW       hi_addr(?lstr10_main+0)
	MOVWF       FARG_sendMQTT_topic+1 
	CALL        _sendMQTT+0, 0
;main.c,124 :: 		delay_ms(100);
	MOVLW       130
	MOVWF       R12, 0
	MOVLW       221
	MOVWF       R13, 0
L_main25:
	DECFSZ      R13, 1, 1
	BRA         L_main25
	DECFSZ      R12, 1, 1
	BRA         L_main25
	NOP
	NOP
;main.c,125 :: 		sendSMS("3008157431","Motobomba encendida");
	MOVLW       ?lstr11_main+0
	MOVWF       FARG_sendSMS_numero+0 
	MOVLW       hi_addr(?lstr11_main+0)
	MOVWF       FARG_sendSMS_numero+1 
	MOVLW       ?lstr12_main+0
	MOVWF       FARG_sendSMS_msj+0 
	MOVLW       hi_addr(?lstr12_main+0)
	MOVWF       FARG_sendSMS_msj+1 
	CALL        _sendSMS+0, 0
;main.c,126 :: 		delay_ms(100);
	MOVLW       130
	MOVWF       R12, 0
	MOVLW       221
	MOVWF       R13, 0
L_main26:
	DECFSZ      R13, 1, 1
	BRA         L_main26
	DECFSZ      R12, 1, 1
	BRA         L_main26
	NOP
	NOP
;main.c,127 :: 		}else{
	GOTO        L_main27
L_main24:
;main.c,128 :: 		sendMQTT("0", "motobomba"); //Motobomba apagada
	MOVLW       ?lstr13_main+0
	MOVWF       FARG_sendMQTT_mensaje+0 
	MOVLW       hi_addr(?lstr13_main+0)
	MOVWF       FARG_sendMQTT_mensaje+1 
	MOVLW       ?lstr14_main+0
	MOVWF       FARG_sendMQTT_topic+0 
	MOVLW       hi_addr(?lstr14_main+0)
	MOVWF       FARG_sendMQTT_topic+1 
	CALL        _sendMQTT+0, 0
;main.c,129 :: 		delay_ms(100);
	MOVLW       130
	MOVWF       R12, 0
	MOVLW       221
	MOVWF       R13, 0
L_main28:
	DECFSZ      R13, 1, 1
	BRA         L_main28
	DECFSZ      R12, 1, 1
	BRA         L_main28
	NOP
	NOP
;main.c,130 :: 		sendSMS("3008157431","Motobomba apagada");
	MOVLW       ?lstr15_main+0
	MOVWF       FARG_sendSMS_numero+0 
	MOVLW       hi_addr(?lstr15_main+0)
	MOVWF       FARG_sendSMS_numero+1 
	MOVLW       ?lstr16_main+0
	MOVWF       FARG_sendSMS_msj+0 
	MOVLW       hi_addr(?lstr16_main+0)
	MOVWF       FARG_sendSMS_msj+1 
	CALL        _sendSMS+0, 0
;main.c,131 :: 		delay_ms(100);
	MOVLW       130
	MOVWF       R12, 0
	MOVLW       221
	MOVWF       R13, 0
L_main29:
	DECFSZ      R13, 1, 1
	BRA         L_main29
	DECFSZ      R12, 1, 1
	BRA         L_main29
	NOP
	NOP
;main.c,132 :: 		}
L_main27:
;main.c,133 :: 		delay_ms(100);
	MOVLW       130
	MOVWF       R12, 0
	MOVLW       221
	MOVWF       R13, 0
L_main30:
	DECFSZ      R13, 1, 1
	BRA         L_main30
	DECFSZ      R12, 1, 1
	BRA         L_main30
	NOP
	NOP
;main.c,135 :: 		}
L_main23:
;main.c,138 :: 		if( waterLevel < 10 || waterLevel > 45 ){ //90% de 50cms
	MOVLW       128
	XORWF       _waterLevel+1, 0 
	MOVWF       R0 
	MOVLW       128
	SUBWF       R0, 0 
	BTFSS       STATUS+0, 2 
	GOTO        L__main63
	MOVLW       10
	SUBWF       _waterLevel+0, 0 
L__main63:
	BTFSS       STATUS+0, 0 
	GOTO        L__main56
	MOVLW       128
	MOVWF       R0 
	MOVLW       128
	XORWF       _waterLevel+1, 0 
	SUBWF       R0, 0 
	BTFSS       STATUS+0, 2 
	GOTO        L__main64
	MOVF        _waterLevel+0, 0 
	SUBLW       45
L__main64:
	BTFSS       STATUS+0, 0 
	GOTO        L__main56
	GOTO        L_main33
L__main56:
;main.c,141 :: 		if(waterLevel > 45  &&  RELE==1){ //tanque vacío y rele apagado
	MOVLW       128
	MOVWF       R0 
	MOVLW       128
	XORWF       _waterLevel+1, 0 
	SUBWF       R0, 0 
	BTFSS       STATUS+0, 2 
	GOTO        L__main65
	MOVF        _waterLevel+0, 0 
	SUBLW       45
L__main65:
	BTFSC       STATUS+0, 0 
	GOTO        L_main36
	BTFSS       PORTC+0, 2 
	GOTO        L_main36
L__main55:
;main.c,142 :: 		RELE = 0;
	BCF         PORTC+0, 2 
;main.c,143 :: 		sendMQTT("1", "motobomba"); //Motobomba encendida
	MOVLW       ?lstr17_main+0
	MOVWF       FARG_sendMQTT_mensaje+0 
	MOVLW       hi_addr(?lstr17_main+0)
	MOVWF       FARG_sendMQTT_mensaje+1 
	MOVLW       ?lstr18_main+0
	MOVWF       FARG_sendMQTT_topic+0 
	MOVLW       hi_addr(?lstr18_main+0)
	MOVWF       FARG_sendMQTT_topic+1 
	CALL        _sendMQTT+0, 0
;main.c,144 :: 		delay_ms(100);
	MOVLW       130
	MOVWF       R12, 0
	MOVLW       221
	MOVWF       R13, 0
L_main37:
	DECFSZ      R13, 1, 1
	BRA         L_main37
	DECFSZ      R12, 1, 1
	BRA         L_main37
	NOP
	NOP
;main.c,145 :: 		sendSMS("3008157431","Motobomba encendida");
	MOVLW       ?lstr19_main+0
	MOVWF       FARG_sendSMS_numero+0 
	MOVLW       hi_addr(?lstr19_main+0)
	MOVWF       FARG_sendSMS_numero+1 
	MOVLW       ?lstr20_main+0
	MOVWF       FARG_sendSMS_msj+0 
	MOVLW       hi_addr(?lstr20_main+0)
	MOVWF       FARG_sendSMS_msj+1 
	CALL        _sendSMS+0, 0
;main.c,146 :: 		delay_ms(100);
	MOVLW       130
	MOVWF       R12, 0
	MOVLW       221
	MOVWF       R13, 0
L_main38:
	DECFSZ      R13, 1, 1
	BRA         L_main38
	DECFSZ      R12, 1, 1
	BRA         L_main38
	NOP
	NOP
;main.c,147 :: 		}
	GOTO        L_main39
L_main36:
;main.c,148 :: 		else if(waterLevel < 10  &&  RELE==0){ //tanque lleno y rele está encendido, entonces apagalo
	MOVLW       128
	XORWF       _waterLevel+1, 0 
	MOVWF       R0 
	MOVLW       128
	SUBWF       R0, 0 
	BTFSS       STATUS+0, 2 
	GOTO        L__main66
	MOVLW       10
	SUBWF       _waterLevel+0, 0 
L__main66:
	BTFSC       STATUS+0, 0 
	GOTO        L_main42
	BTFSC       PORTC+0, 2 
	GOTO        L_main42
L__main54:
;main.c,149 :: 		RELE = 1;
	BSF         PORTC+0, 2 
;main.c,150 :: 		sendMQTT("0", "motobomba"); //Motobomba apagada
	MOVLW       ?lstr21_main+0
	MOVWF       FARG_sendMQTT_mensaje+0 
	MOVLW       hi_addr(?lstr21_main+0)
	MOVWF       FARG_sendMQTT_mensaje+1 
	MOVLW       ?lstr22_main+0
	MOVWF       FARG_sendMQTT_topic+0 
	MOVLW       hi_addr(?lstr22_main+0)
	MOVWF       FARG_sendMQTT_topic+1 
	CALL        _sendMQTT+0, 0
;main.c,151 :: 		delay_ms(100);
	MOVLW       130
	MOVWF       R12, 0
	MOVLW       221
	MOVWF       R13, 0
L_main43:
	DECFSZ      R13, 1, 1
	BRA         L_main43
	DECFSZ      R12, 1, 1
	BRA         L_main43
	NOP
	NOP
;main.c,152 :: 		sendSMS("3008157431","Motobomba apagada");
	MOVLW       ?lstr23_main+0
	MOVWF       FARG_sendSMS_numero+0 
	MOVLW       hi_addr(?lstr23_main+0)
	MOVWF       FARG_sendSMS_numero+1 
	MOVLW       ?lstr24_main+0
	MOVWF       FARG_sendSMS_msj+0 
	MOVLW       hi_addr(?lstr24_main+0)
	MOVWF       FARG_sendSMS_msj+1 
	CALL        _sendSMS+0, 0
;main.c,153 :: 		delay_ms(100);
	MOVLW       130
	MOVWF       R12, 0
	MOVLW       221
	MOVWF       R13, 0
L_main44:
	DECFSZ      R13, 1, 1
	BRA         L_main44
	DECFSZ      R12, 1, 1
	BRA         L_main44
	NOP
	NOP
;main.c,154 :: 		}
L_main42:
L_main39:
;main.c,155 :: 		cleanBufferRx();
	CALL        _cleanBufferRx+0, 0
;main.c,156 :: 		}
	GOTO        L_main45
L_main33:
;main.c,157 :: 		else if(strstr(bufferRx,"CloseMQTT")){
	MOVLW       _bufferRx+0
	MOVWF       FARG_strstr_s1+0 
	MOVLW       hi_addr(_bufferRx+0)
	MOVWF       FARG_strstr_s1+1 
	MOVLW       ?lstr25_main+0
	MOVWF       FARG_strstr_s2+0 
	MOVLW       hi_addr(?lstr25_main+0)
	MOVWF       FARG_strstr_s2+1 
	CALL        _strstr+0, 0
	MOVF        R0, 0 
	IORWF       R1, 0 
	BTFSC       STATUS+0, 2 
	GOTO        L_main46
;main.c,158 :: 		delay_ms(100);
	MOVLW       130
	MOVWF       R12, 0
	MOVLW       221
	MOVWF       R13, 0
L_main47:
	DECFSZ      R13, 1, 1
	BRA         L_main47
	DECFSZ      R12, 1, 1
	BRA         L_main47
	NOP
	NOP
;main.c,159 :: 		cleanBufferRx();
	CALL        _cleanBufferRx+0, 0
;main.c,160 :: 		closeMQTT();
	CALL        _closeMQTT+0, 0
;main.c,161 :: 		delay_ms(100);
	MOVLW       130
	MOVWF       R12, 0
	MOVLW       221
	MOVWF       R13, 0
L_main48:
	DECFSZ      R13, 1, 1
	BRA         L_main48
	DECFSZ      R12, 1, 1
	BRA         L_main48
	NOP
	NOP
;main.c,162 :: 		cleanBufferRx();
	CALL        _cleanBufferRx+0, 0
;main.c,163 :: 		}
	GOTO        L_main49
L_main46:
;main.c,165 :: 		cleanBufferRx();
	CALL        _cleanBufferRx+0, 0
;main.c,166 :: 		delay_ms(100);
	MOVLW       130
	MOVWF       R12, 0
	MOVLW       221
	MOVWF       R13, 0
L_main50:
	DECFSZ      R13, 1, 1
	BRA         L_main50
	DECFSZ      R12, 1, 1
	BRA         L_main50
	NOP
	NOP
;main.c,167 :: 		}
L_main49:
L_main45:
;main.c,169 :: 		}
	GOTO        L_main12
;main.c,171 :: 		}
L_end_main:
	GOTO        $+0
; end of _main

_cleanBufferRx:

;main.c,173 :: 		void cleanBufferRx(){
;main.c,174 :: 		unsigned char i =0;
	CLRF        cleanBufferRx_i_L0+0 
;main.c,175 :: 		for(i=0; i<50; i++)
	CLRF        cleanBufferRx_i_L0+0 
L_cleanBufferRx51:
	MOVLW       50
	SUBWF       cleanBufferRx_i_L0+0, 0 
	BTFSC       STATUS+0, 0 
	GOTO        L_cleanBufferRx52
;main.c,176 :: 		bufferRx[i] = '\0';
	MOVLW       _bufferRx+0
	MOVWF       FSR1L+0 
	MOVLW       hi_addr(_bufferRx+0)
	MOVWF       FSR1L+1 
	MOVF        cleanBufferRx_i_L0+0, 0 
	ADDWF       FSR1L+0, 1 
	BTFSC       STATUS+0, 0 
	INCF        FSR1L+1, 1 
	CLRF        POSTINC1+0 
;main.c,175 :: 		for(i=0; i<50; i++)
	INCF        cleanBufferRx_i_L0+0, 1 
;main.c,176 :: 		bufferRx[i] = '\0';
	GOTO        L_cleanBufferRx51
L_cleanBufferRx52:
;main.c,177 :: 		indexBufferRx=0;
	CLRF        _indexBufferRx+0 
;main.c,178 :: 		}
L_end_cleanBufferRx:
	RETURN      0
; end of _cleanBufferRx
